target datalayout = "e-m:e-p270:32:32-p271:32:32-p272:64:64-i64:64-i128:128-f80:128-n8:16:32:64-S128"
target triple = "x86_64-pc-linux-gnu"

%struct.anon = type { i32, [0 x i8] }
%struct.JsonbValue = type { i32, %union.anon }
%union.anon = type { %struct.anon.2 }
%struct.anon.2 = type { i32, ptr, i8 }
%struct.FunctionCallInfoBaseData = type { ptr, ptr, ptr, i32, i8, i16, [0 x %struct.NullableDatum] }
%struct.NullableDatum = type { i64, i8 }
%struct.FmgrInfo = type { ptr, i32, i16, i8, i8, i8, ptr, ptr, ptr }
%struct.FuncCallContext = type { i64, i64, ptr, ptr, ptr, ptr }
%struct.OkeysState = type { ptr, ptr, i32, i32, i32 }
%struct.Jsonb = type { i32, %struct.JsonbContainer }
%struct.JsonbContainer = type { i32, [0 x i32] }
%struct.anon.1 = type { i32, ptr }
%struct.ReturnSetInfo = type { i32, ptr, ptr, i32, i32, i32, ptr, ptr }

@.str = private unnamed_addr constant [27 x i8] c"cannot call %s on a scalar\00", align 1
@.str.1 = private unnamed_addr constant [18 x i8] c"jsonb_object_keys\00", align 1
@.str.2 = private unnamed_addr constant [12 x i8] c"jsonfuncs.c\00", align 1
@.str.3 = private unnamed_addr constant [27 x i8] c"cannot call %s on an array\00", align 1
@CurrentMemoryContext = external global ptr, align 8

; Function Attrs: inlinehint nounwind uwtable
define internal ptr @DatumGetPointer(i64 noundef %0) #3 {
  %2 = alloca i64, align 8
  store i64 %0, ptr %2, align 8
  %3 = load i64, ptr %2, align 8
  %4 = inttoptr i64 %3 to ptr
  ret ptr %4
}

; Function Attrs: inlinehint nounwind uwtable
define internal i64 @PointerGetDatum(ptr noundef %0) #3 {
  %2 = alloca ptr, align 8
  store ptr %0, ptr %2, align 8
  %3 = load ptr, ptr %2, align 8
  %4 = ptrtoint ptr %3 to i64
  ret i64 %4
}

; Function Attrs: inlinehint nounwind uwtable
define internal ptr @MemoryContextSwitchTo(ptr noundef %0) #3 {
  %2 = alloca ptr, align 8
  %3 = alloca ptr, align 8
  store ptr %0, ptr %2, align 8
  call void @llvm.lifetime.start.p0(i64 8, ptr %3) #10
  %4 = load ptr, ptr @CurrentMemoryContext, align 8
  store ptr %4, ptr %3, align 8
  %5 = load ptr, ptr %2, align 8
  store ptr %5, ptr @CurrentMemoryContext, align 8
  %6 = load ptr, ptr %3, align 8
  call void @llvm.lifetime.end.p0(i64 8, ptr %3) #10
  ret ptr %6
}

; Function Attrs: inlinehint nounwind uwtable
define internal ptr @DatumGetJsonbP(i64 noundef %0) #3 {
  %2 = alloca i64, align 8
  store i64 %0, ptr %2, align 8
  %3 = load i64, ptr %2, align 8
  %4 = call ptr @DatumGetPointer(i64 noundef %3)
  %5 = call ptr @pg_detoast_datum(ptr noundef %4)
  ret ptr %5
}

; Function Attrs: nounwind uwtable
define dso_local i64 @jsonb_object_keys(ptr noundef %0) #0 {
  %2 = alloca i64, align 8
  %3 = alloca ptr, align 8
  %4 = alloca ptr, align 8
  %5 = alloca ptr, align 8
  %6 = alloca ptr, align 8
  %7 = alloca ptr, align 8
  %8 = alloca i8, align 1
  %9 = alloca ptr, align 8
  %10 = alloca %struct.JsonbValue, align 8
  %11 = alloca i32, align 4
  %12 = alloca ptr, align 8
  %13 = alloca ptr, align 8
  %14 = alloca ptr, align 8
  %15 = alloca i32, align 4
  %16 = alloca ptr, align 8
  store ptr %0, ptr %3, align 8
  call void @llvm.lifetime.start.p0(i64 8, ptr %4) #10
  call void @llvm.lifetime.start.p0(i64 8, ptr %5) #10
  %17 = load ptr, ptr %3, align 8
  %18 = getelementptr inbounds nuw %struct.FunctionCallInfoBaseData, ptr %17, i32 0, i32 0
  %19 = load ptr, ptr %18, align 8
  %20 = getelementptr inbounds nuw %struct.FmgrInfo, ptr %19, i32 0, i32 6
  %21 = load ptr, ptr %20, align 8
  %22 = icmp eq ptr %21, null
  br i1 %22, label %23, label %144

23:                                               ; preds = %1
  call void @llvm.lifetime.start.p0(i64 8, ptr %6) #10
  call void @llvm.lifetime.start.p0(i64 8, ptr %7) #10
  %24 = load ptr, ptr %3, align 8
  %25 = getelementptr inbounds nuw %struct.FunctionCallInfoBaseData, ptr %24, i32 0, i32 6
  %26 = getelementptr inbounds [0 x %struct.NullableDatum], ptr %25, i64 0, i64 0
  %27 = getelementptr inbounds nuw %struct.NullableDatum, ptr %26, i32 0, i32 0
  %28 = load i64, ptr %27, align 8
  %29 = call ptr @DatumGetJsonbP(i64 noundef %28)
  store ptr %29, ptr %7, align 8
  call void @llvm.lifetime.start.p0(i64 1, ptr %8) #10
  store i8 0, ptr %8, align 1
  call void @llvm.lifetime.start.p0(i64 8, ptr %9) #10
  call void @llvm.lifetime.start.p0(i64 32, ptr %10) #10
  call void @llvm.lifetime.start.p0(i64 4, ptr %11) #10
  %30 = load ptr, ptr %7, align 8
  %31 = getelementptr inbounds nuw %struct.anon, ptr %30, i32 0, i32 1
  %32 = getelementptr inbounds [0 x i8], ptr %31, i64 0, i64 0
  %33 = load i32, ptr %32, align 4
  %34 = and i32 %33, 268435456
  %35 = icmp ne i32 %34, 0
  br i1 %35, label %36, label %48

36:                                               ; preds = %23
  br label %37

37:                                               ; preds = %36
  br i1 true, label %38, label %40

38:                                               ; preds = %37
  %39 = call zeroext i1 @errstart_cold(i32 noundef 21, ptr noundef null) #11
  br i1 %39, label %42, label %45

40:                                               ; preds = %37
  %41 = call zeroext i1 @errstart(i32 noundef 21, ptr noundef null)
  br i1 %41, label %42, label %45

42:                                               ; preds = %40, %38
  %43 = call i32 @errcode(i32 noundef 50856066)
  %44 = call i32 (ptr, ...) @errmsg(ptr noundef @.str, ptr noundef @.str.1)
  call void @errfinish(ptr noundef @.str.2, i32 noundef 585, ptr noundef @.str.1)
  br label %45

45:                                               ; preds = %42, %40, %38
  unreachable

46:                                               ; No predecessors!
  br label %47

47:                                               ; preds = %46
  br label %68

48:                                               ; preds = %23
  %49 = load ptr, ptr %7, align 8
  %50 = getelementptr inbounds nuw %struct.anon, ptr %49, i32 0, i32 1
  %51 = getelementptr inbounds [0 x i8], ptr %50, i64 0, i64 0
  %52 = load i32, ptr %51, align 4
  %53 = and i32 %52, 1073741824
  %54 = icmp ne i32 %53, 0
  br i1 %54, label %55, label %67

55:                                               ; preds = %48
  br label %56

56:                                               ; preds = %55
  br i1 true, label %57, label %59

57:                                               ; preds = %56
  %58 = call zeroext i1 @errstart_cold(i32 noundef 21, ptr noundef null) #11
  br i1 %58, label %61, label %64

59:                                               ; preds = %56
  %60 = call zeroext i1 @errstart(i32 noundef 21, ptr noundef null)
  br i1 %60, label %61, label %64

61:                                               ; preds = %59, %57
  %62 = call i32 @errcode(i32 noundef 50856066)
  %63 = call i32 (ptr, ...) @errmsg(ptr noundef @.str.3, ptr noundef @.str.1)
  call void @errfinish(ptr noundef @.str.2, i32 noundef 590, ptr noundef @.str.1)
  br label %64

64:                                               ; preds = %61, %59, %57
  unreachable

65:                                               ; No predecessors!
  br label %66

66:                                               ; preds = %65
  br label %67

67:                                               ; preds = %66, %48
  br label %68

68:                                               ; preds = %67, %47
  %69 = load ptr, ptr %3, align 8
  %70 = call ptr @init_MultiFuncCall(ptr noundef %69)
  store ptr %70, ptr %4, align 8
  %71 = load ptr, ptr %4, align 8
  %72 = getelementptr inbounds nuw %struct.FuncCallContext, ptr %71, i32 0, i32 4
  %73 = load ptr, ptr %72, align 8
  %74 = call ptr @MemoryContextSwitchTo(ptr noundef %73)
  store ptr %74, ptr %6, align 8
  %75 = call ptr @palloc(i64 noundef 32)
  store ptr %75, ptr %5, align 8
  %76 = load ptr, ptr %7, align 8
  %77 = getelementptr inbounds nuw %struct.anon, ptr %76, i32 0, i32 1
  %78 = getelementptr inbounds [0 x i8], ptr %77, i64 0, i64 0
  %79 = load i32, ptr %78, align 4
  %80 = and i32 %79, 268435455
  %81 = load ptr, ptr %5, align 8
  %82 = getelementptr inbounds nuw %struct.OkeysState, ptr %81, i32 0, i32 2
  store i32 %80, ptr %82, align 8
  %83 = load ptr, ptr %5, align 8
  %84 = getelementptr inbounds nuw %struct.OkeysState, ptr %83, i32 0, i32 3
  store i32 0, ptr %84, align 4
  %85 = load ptr, ptr %5, align 8
  %86 = getelementptr inbounds nuw %struct.OkeysState, ptr %85, i32 0, i32 4
  store i32 0, ptr %86, align 8
  %87 = load ptr, ptr %5, align 8
  %88 = getelementptr inbounds nuw %struct.OkeysState, ptr %87, i32 0, i32 2
  %89 = load i32, ptr %88, align 8
  %90 = sext i32 %89 to i64
  %91 = mul i64 %90, 8
  %92 = call ptr @palloc(i64 noundef %91)
  %93 = load ptr, ptr %5, align 8
  %94 = getelementptr inbounds nuw %struct.OkeysState, ptr %93, i32 0, i32 1
  store ptr %92, ptr %94, align 8
  %95 = load ptr, ptr %7, align 8
  %96 = getelementptr inbounds nuw %struct.Jsonb, ptr %95, i32 0, i32 1
  %97 = call ptr @JsonbIteratorInit(ptr noundef %96)
  store ptr %97, ptr %9, align 8
  br label %98

98:                                               ; preds = %137, %68
  %99 = load i8, ptr %8, align 1, !range !4, !noundef !5
  %100 = trunc i8 %99 to i1
  %101 = call i32 @JsonbIteratorNext(ptr noundef %9, ptr noundef %10, i1 noundef zeroext %100)
  store i32 %101, ptr %11, align 4
  %102 = icmp ne i32 %101, 0
  br i1 %102, label %103, label %138

103:                                              ; preds = %98
  store i8 1, ptr %8, align 1
  %104 = load i32, ptr %11, align 4
  %105 = icmp eq i32 %104, 1
  br i1 %105, label %106, label %137

106:                                              ; preds = %103
  call void @llvm.lifetime.start.p0(i64 8, ptr %12) #10
  %107 = getelementptr inbounds nuw %struct.JsonbValue, ptr %10, i32 0, i32 1
  %108 = getelementptr inbounds nuw %struct.anon.1, ptr %107, i32 0, i32 0
  %109 = load i32, ptr %108, align 8
  %110 = sext i32 %109 to i64
  %111 = add i64 %110, 1
  %112 = call ptr @palloc(i64 noundef %111)
  store ptr %112, ptr %12, align 8
  %113 = load ptr, ptr %12, align 8
  %114 = getelementptr inbounds nuw %struct.JsonbValue, ptr %10, i32 0, i32 1
  %115 = getelementptr inbounds nuw %struct.anon.1, ptr %114, i32 0, i32 1
  %116 = load ptr, ptr %115, align 8
  %117 = getelementptr inbounds nuw %struct.JsonbValue, ptr %10, i32 0, i32 1
  %118 = getelementptr inbounds nuw %struct.anon.1, ptr %117, i32 0, i32 0
  %119 = load i32, ptr %118, align 8
  %120 = sext i32 %119 to i64
  call void @llvm.memcpy.p0.p0.i64(ptr align 1 %113, ptr align 1 %116, i64 %120, i1 false)
  %121 = load ptr, ptr %12, align 8
  %122 = getelementptr inbounds nuw %struct.JsonbValue, ptr %10, i32 0, i32 1
  %123 = getelementptr inbounds nuw %struct.anon.1, ptr %122, i32 0, i32 0
  %124 = load i32, ptr %123, align 8
  %125 = sext i32 %124 to i64
  %126 = getelementptr inbounds i8, ptr %121, i64 %125
  store i8 0, ptr %126, align 1
  %127 = load ptr, ptr %12, align 8
  %128 = load ptr, ptr %5, align 8
  %129 = getelementptr inbounds nuw %struct.OkeysState, ptr %128, i32 0, i32 1
  %130 = load ptr, ptr %129, align 8
  %131 = load ptr, ptr %5, align 8
  %132 = getelementptr inbounds nuw %struct.OkeysState, ptr %131, i32 0, i32 3
  %133 = load i32, ptr %132, align 4
  %134 = add i32 %133, 1
  store i32 %134, ptr %132, align 4
  %135 = sext i32 %133 to i64
  %136 = getelementptr inbounds ptr, ptr %130, i64 %135
  store ptr %127, ptr %136, align 8
  call void @llvm.lifetime.end.p0(i64 8, ptr %12) #10
  br label %137

137:                                              ; preds = %106, %103
  br label %98, !llvm.loop !6

138:                                              ; preds = %98
  %139 = load ptr, ptr %6, align 8
  %140 = call ptr @MemoryContextSwitchTo(ptr noundef %139)
  %141 = load ptr, ptr %5, align 8
  %142 = load ptr, ptr %4, align 8
  %143 = getelementptr inbounds nuw %struct.FuncCallContext, ptr %142, i32 0, i32 2
  store ptr %141, ptr %143, align 8
  call void @llvm.lifetime.end.p0(i64 4, ptr %11) #10
  call void @llvm.lifetime.end.p0(i64 32, ptr %10) #10
  call void @llvm.lifetime.end.p0(i64 8, ptr %9) #10
  call void @llvm.lifetime.end.p0(i64 1, ptr %8) #10
  call void @llvm.lifetime.end.p0(i64 8, ptr %7) #10
  call void @llvm.lifetime.end.p0(i64 8, ptr %6) #10
  br label %144

144:                                              ; preds = %138, %1
  %145 = load ptr, ptr %3, align 8
  %146 = call ptr @per_MultiFuncCall(ptr noundef %145)
  store ptr %146, ptr %4, align 8
  %147 = load ptr, ptr %4, align 8
  %148 = getelementptr inbounds nuw %struct.FuncCallContext, ptr %147, i32 0, i32 2
  %149 = load ptr, ptr %148, align 8
  store ptr %149, ptr %5, align 8
  %150 = load ptr, ptr %5, align 8
  %151 = getelementptr inbounds nuw %struct.OkeysState, ptr %150, i32 0, i32 4
  %152 = load i32, ptr %151, align 8
  %153 = load ptr, ptr %5, align 8
  %154 = getelementptr inbounds nuw %struct.OkeysState, ptr %153, i32 0, i32 3
  %155 = load i32, ptr %154, align 4
  %156 = icmp slt i32 %152, %155
  br i1 %156, label %157, label %186

157:                                              ; preds = %144
  call void @llvm.lifetime.start.p0(i64 8, ptr %13) #10
  %158 = load ptr, ptr %5, align 8
  %159 = getelementptr inbounds nuw %struct.OkeysState, ptr %158, i32 0, i32 1
  %160 = load ptr, ptr %159, align 8
  %161 = load ptr, ptr %5, align 8
  %162 = getelementptr inbounds nuw %struct.OkeysState, ptr %161, i32 0, i32 4
  %163 = load i32, ptr %162, align 8
  %164 = add i32 %163, 1
  store i32 %164, ptr %162, align 8
  %165 = sext i32 %163 to i64
  %166 = getelementptr inbounds ptr, ptr %160, i64 %165
  %167 = load ptr, ptr %166, align 8
  store ptr %167, ptr %13, align 8
  br label %168

168:                                              ; preds = %157
  call void @llvm.lifetime.start.p0(i64 8, ptr %14) #10
  %169 = load ptr, ptr %4, align 8
  %170 = getelementptr inbounds nuw %struct.FuncCallContext, ptr %169, i32 0, i32 0
  %171 = load i64, ptr %170, align 8
  %172 = add i64 %171, 1
  store i64 %172, ptr %170, align 8
  %173 = load ptr, ptr %3, align 8
  %174 = getelementptr inbounds nuw %struct.FunctionCallInfoBaseData, ptr %173, i32 0, i32 2
  %175 = load ptr, ptr %174, align 8
  store ptr %175, ptr %14, align 8
  %176 = load ptr, ptr %14, align 8
  %177 = getelementptr inbounds nuw %struct.ReturnSetInfo, ptr %176, i32 0, i32 5
  store i32 1, ptr %177, align 8
  %178 = load ptr, ptr %13, align 8
  %179 = call ptr @cstring_to_text(ptr noundef %178)
  %180 = call i64 @PointerGetDatum(ptr noundef %179)
  store i64 %180, ptr %2, align 8
  store i32 1, ptr %15, align 4
  call void @llvm.lifetime.end.p0(i64 8, ptr %14) #10
  br label %183

181:                                              ; No predecessors!
  br label %182

182:                                              ; preds = %181
  store i32 0, ptr %15, align 4
  br label %183

183:                                              ; preds = %182, %168
  call void @llvm.lifetime.end.p0(i64 8, ptr %13) #10
  %184 = load i32, ptr %15, align 4
  switch i32 %184, label %205 [
    i32 0, label %185
  ]

185:                                              ; preds = %183
  br label %186

186:                                              ; preds = %185, %144
  br label %187

187:                                              ; preds = %186
  call void @llvm.lifetime.start.p0(i64 8, ptr %16) #10
  %188 = load ptr, ptr %3, align 8
  %189 = load ptr, ptr %4, align 8
  call void @end_MultiFuncCall(ptr noundef %188, ptr noundef %189)
  %190 = load ptr, ptr %3, align 8
  %191 = getelementptr inbounds nuw %struct.FunctionCallInfoBaseData, ptr %190, i32 0, i32 2
  %192 = load ptr, ptr %191, align 8
  store ptr %192, ptr %16, align 8
  %193 = load ptr, ptr %16, align 8
  %194 = getelementptr inbounds nuw %struct.ReturnSetInfo, ptr %193, i32 0, i32 5
  store i32 2, ptr %194, align 8
  br label %195

195:                                              ; preds = %187
  %196 = load ptr, ptr %3, align 8
  %197 = getelementptr inbounds nuw %struct.FunctionCallInfoBaseData, ptr %196, i32 0, i32 4
  store i8 1, ptr %197, align 4
  store i64 0, ptr %2, align 8
  store i32 1, ptr %15, align 4
  br label %200

198:                                              ; No predecessors!
  br label %199

199:                                              ; preds = %198
  store i32 0, ptr %15, align 4
  br label %200

200:                                              ; preds = %199, %195
  call void @llvm.lifetime.end.p0(i64 8, ptr %16) #10
  %201 = load i32, ptr %15, align 4
  switch i32 %201, label %205 [
    i32 0, label %202
  ]

202:                                              ; preds = %200
  br label %203

203:                                              ; preds = %202
  br label %204

204:                                              ; preds = %203
  store i32 0, ptr %15, align 4
  br label %205

205:                                              ; preds = %204, %200, %183
  call void @llvm.lifetime.end.p0(i64 8, ptr %5) #10
  call void @llvm.lifetime.end.p0(i64 8, ptr %4) #10
  %206 = load i32, ptr %15, align 4
  switch i32 %206, label %209 [
    i32 0, label %207
    i32 1, label %207
  ]

207:                                              ; preds = %205, %205
  %208 = load i64, ptr %2, align 8
  ret i64 %208

209:                                              ; preds = %205
  unreachable
}