; Function Attrs: nounwind uwtable
define dso_local i64 @jsonb_object_keys(ptr noundef %0) local_unnamed_addr #0 {
  %2 = alloca ptr, align 8
  %3 = alloca %struct.JsonbValue, align 8
  %4 = load ptr, ptr %0, align 8
  %5 = getelementptr inbounds nuw i8, ptr %4, i64 24
  %6 = load ptr, ptr %5, align 8
  %7 = icmp eq ptr %6, null
  br i1 %7, label %8, label %64

8:                                                ; preds = %1
  %9 = getelementptr inbounds nuw i8, ptr %0, i64 32
  %10 = load i64, ptr %9, align 8
  %11 = inttoptr i64 %10 to ptr
  %12 = tail call ptr @pg_detoast_datum(ptr noundef %11) #15
  call void @llvm.lifetime.start.p0(i64 8, ptr nonnull %2) #15
  call void @llvm.lifetime.start.p0(i64 32, ptr nonnull %3) #15
  %13 = getelementptr inbounds nuw i8, ptr %12, i64 4
  %14 = load i32, ptr %13, align 4
  %15 = and i32 %14, 268435456
  %.not = icmp eq i32 %15, 0
  br i1 %.not, label %20, label %16

16:                                               ; preds = %8
  %17 = tail call zeroext i1 @errstart_cold(i32 noundef 21, ptr noundef null) #16
  tail call void @llvm.assume(i1 %17)
  %18 = tail call i32 @errcode(i32 noundef 50856066) #15
  %19 = tail call i32 (ptr, ...) @errmsg(ptr noundef nonnull @.str, ptr noundef nonnull @.str.1) #15
  tail call void @errfinish(ptr noundef nonnull @.str.2, i32 noundef 585, ptr noundef nonnull @.str.1) #15
  unreachable

20:                                               ; preds = %8
  %21 = and i32 %14, 1073741824
  %.not44 = icmp eq i32 %21, 0
  br i1 %.not44, label %26, label %22

22:                                               ; preds = %20
  %23 = tail call zeroext i1 @errstart_cold(i32 noundef 21, ptr noundef null) #16
  tail call void @llvm.assume(i1 %23)
  %24 = tail call i32 @errcode(i32 noundef 50856066) #15
  %25 = tail call i32 (ptr, ...) @errmsg(ptr noundef nonnull @.str.3, ptr noundef nonnull @.str.1) #15
  tail call void @errfinish(ptr noundef nonnull @.str.2, i32 noundef 590, ptr noundef nonnull @.str.1) #15
  unreachable

26:                                               ; preds = %20
  %27 = tail call ptr @init_MultiFuncCall(ptr noundef nonnull %0) #15
  %28 = getelementptr inbounds nuw i8, ptr %27, i64 32
  %29 = load ptr, ptr %28, align 8
  %30 = load ptr, ptr @CurrentMemoryContext, align 8
  store ptr %29, ptr @CurrentMemoryContext, align 8
  %31 = tail call ptr @palloc(i64 noundef 32) #15
  %32 = load i32, ptr %13, align 4
  %33 = and i32 %32, 268435455
  %34 = getelementptr inbounds nuw i8, ptr %31, i64 16
  store i32 %33, ptr %34, align 8
  %35 = getelementptr inbounds nuw i8, ptr %31, i64 20
  store i32 0, ptr %35, align 4
  %36 = getelementptr inbounds nuw i8, ptr %31, i64 24
  store i32 0, ptr %36, align 8
  %37 = shl nuw nsw i32 %33, 3
  %38 = zext nneg i32 %37 to i64
  %39 = tail call ptr @palloc(i64 noundef %38) #15
  %40 = getelementptr inbounds nuw i8, ptr %31, i64 8
  store ptr %39, ptr %40, align 8
  %41 = tail call ptr @JsonbIteratorInit(ptr noundef nonnull %13) #15
  store ptr %41, ptr %2, align 8
  %42 = getelementptr inbounds nuw i8, ptr %3, i64 8
  %43 = getelementptr inbounds nuw i8, ptr %3, i64 16
  br label %44

44:                                               ; preds = %.backedge, %26
  %.041 = phi i1 [ false, %26 ], [ true, %.backedge ]
  %45 = call i32 @JsonbIteratorNext(ptr noundef nonnull %2, ptr noundef nonnull %3, i1 noundef zeroext %.041) #15
  switch i32 %45, label %.backedge [
    i32 0, label %62
    i32 1, label %46
  ]

.backedge:                                        ; preds = %44, %46
  br label %44, !llvm.loop !6

46:                                               ; preds = %44
  %47 = load i32, ptr %42, align 8
  %48 = sext i32 %47 to i64
  %49 = add nsw i64 %48, 1
  %50 = call ptr @palloc(i64 noundef %49) #15
  %51 = load ptr, ptr %43, align 8
  %52 = load i32, ptr %42, align 8
  %53 = sext i32 %52 to i64
  call void @llvm.memcpy.p0.p0.i64(ptr align 1 %50, ptr align 1 %51, i64 %53, i1 false)
  %54 = load i32, ptr %42, align 8
  %55 = sext i32 %54 to i64
  %56 = getelementptr inbounds i8, ptr %50, i64 %55
  store i8 0, ptr %56, align 1
  %57 = load ptr, ptr %40, align 8
  %58 = load i32, ptr %35, align 4
  %59 = add i32 %58, 1
  store i32 %59, ptr %35, align 4
  %60 = sext i32 %58 to i64
  %61 = getelementptr inbounds ptr, ptr %57, i64 %60
  store ptr %50, ptr %61, align 8
  br label %.backedge

62:                                               ; preds = %44
  store ptr %30, ptr @CurrentMemoryContext, align 8
  %63 = getelementptr inbounds nuw i8, ptr %27, i64 16
  store ptr %31, ptr %63, align 8
  call void @llvm.lifetime.end.p0(i64 32, ptr nonnull %3) #15
  call void @llvm.lifetime.end.p0(i64 8, ptr nonnull %2) #15
  br label %64

64:                                               ; preds = %62, %1
  %65 = call ptr @per_MultiFuncCall(ptr noundef nonnull %0) #15
  %66 = getelementptr inbounds nuw i8, ptr %65, i64 16
  %67 = load ptr, ptr %66, align 8
  %68 = getelementptr inbounds nuw i8, ptr %67, i64 24
  %69 = load i32, ptr %68, align 8
  %70 = getelementptr inbounds nuw i8, ptr %67, i64 20
  %71 = load i32, ptr %70, align 4
  %72 = icmp slt i32 %69, %71
  br i1 %72, label %73, label %87

73:                                               ; preds = %64
  %74 = getelementptr inbounds nuw i8, ptr %67, i64 8
  %75 = load ptr, ptr %74, align 8
  %76 = add nsw i32 %69, 1
  store i32 %76, ptr %68, align 8
  %77 = sext i32 %69 to i64
  %78 = getelementptr inbounds ptr, ptr %75, i64 %77
  %79 = load ptr, ptr %78, align 8
  %80 = load i64, ptr %65, align 8
  %81 = add i64 %80, 1
  store i64 %81, ptr %65, align 8
  %82 = getelementptr inbounds nuw i8, ptr %0, i64 16
  %83 = load ptr, ptr %82, align 8
  %84 = getelementptr inbounds nuw i8, ptr %83, i64 32
  store i32 1, ptr %84, align 8
  %85 = call ptr @cstring_to_text(ptr noundef %79) #15
  %86 = ptrtoint ptr %85 to i64
  br label %92

87:                                               ; preds = %64
  call void @end_MultiFuncCall(ptr noundef nonnull %0, ptr noundef nonnull %65) #15
  %88 = getelementptr inbounds nuw i8, ptr %0, i64 16
  %89 = load ptr, ptr %88, align 8
  %90 = getelementptr inbounds nuw i8, ptr %89, i64 32
  store i32 2, ptr %90, align 8
  %91 = getelementptr inbounds nuw i8, ptr %0, i64 28
  store i8 1, ptr %91, align 4
  br label %92

92:                                               ; preds = %73, %87
  %.0 = phi i64 [ 0, %87 ], [ %86, %73 ]
  ret i64 %.0
}